; Function Attrs: mustprogress nofree nounwind willreturn memory(write, argmem: readwrite) uwtable
define noundef double @_Z5AnglePKd(ptr noundef readonly captures(none) %0) local_unnamed_addr #4 {
  %2 = load double, ptr %0, align 8
  %3 = getelementptr inbounds nuw i8, ptr %0, i64 8
  %4 = load double, ptr %3, align 8
  %5 = fmul double %4, %4
  %6 = tail call double @llvm.fmuladd.f64(double %2, double %2, double %5)
  %7 = fcmp oeq double %6, 0.000000e+00
  br i1 %7, label %_Z7ArcTan2dd.exit, label %8

8:                                                ; preds = %1
  %9 = fcmp oeq double %4, 0.000000e+00
  %10 = fcmp oeq double %2, 0.000000e+00
  %or.cond.i = and i1 %10, %9
  br i1 %or.cond.i, label %_Z7ArcTan2dd.exit, label %11

11:                                               ; preds = %8
  br i1 %10, label %12, label %14

12:                                               ; preds = %11
  %13 = fcmp ogt double %4, 0.000000e+00
  %..i = select i1 %13, double 0x3FF921FB54442D18, double 0xBFF921FB54442D18
  br label %_Z7ArcTan2dd.exit

14:                                               ; preds = %11
  %15 = fcmp ult double %2, 0.000000e+00
  br i1 %15, label %19, label %16

16:                                               ; preds = %14
  %17 = fdiv double %4, %2
  %18 = tail call double @atan(double noundef %17) #12
  br label %_Z7ArcTan2dd.exit

19:                                               ; preds = %14
  %20 = fcmp ult double %4, 0.000000e+00
  %21 = fdiv double %4, %2
  %22 = tail call double @atan(double noundef %21) #12
  br i1 %20, label %25, label %23

23:                                               ; preds = %19
  %24 = fadd double %22, 0x400921FB54442D18
  br label %_Z7ArcTan2dd.exit

25:                                               ; preds = %19
  %26 = fadd double %22, 0xC00921FB54442D18
  br label %_Z7ArcTan2dd.exit

_Z7ArcTan2dd.exit:                                ; preds = %25, %23, %16, %12, %8, %1
  %.0 = phi double [ 0.000000e+00, %1 ], [ %18, %16 ], [ %24, %23 ], [ %26, %25 ], [ 0.000000e+00, %8 ], [ %..i, %12 ]
  ret double %.0
}